target datalayout = "e-m:e-p270:32:32-p271:32:32-p272:64:64-i64:64-i128:128-f80:128-n8:16:32:64-S128"
target triple = "x86_64-pc-linux-gnu"

; Function Attrs: nounwind uwtable
define void @stbhw__draw_pixel(ptr noundef %0, i32 noundef %1, i32 noundef %2, i32 noundef %3, ptr noundef %4) #0 {
  %6 = alloca ptr, align 8
  %7 = alloca i32, align 4
  %8 = alloca i32, align 4
  %9 = alloca i32, align 4
  %10 = alloca ptr, align 8
  store ptr %0, ptr %6, align 8, !tbaa !3
  store i32 %1, ptr %7, align 4, !tbaa !10
  store i32 %2, ptr %8, align 4, !tbaa !10
  store i32 %3, ptr %9, align 4, !tbaa !10
  store ptr %4, ptr %10, align 8, !tbaa !3
  %11 = load ptr, ptr %6, align 8, !tbaa !3
  %12 = load i32, ptr %9, align 4, !tbaa !10
  %13 = load i32, ptr %7, align 4, !tbaa !10
  %14 = mul nsw i32 %12, %13
  %15 = sext i32 %14 to i64
  %16 = getelementptr inbounds i8, ptr %11, i64 %15
  %17 = load i32, ptr %8, align 4, !tbaa !10
  %18 = mul nsw i32 %17, 3
  %19 = sext i32 %18 to i64
  %20 = getelementptr inbounds i8, ptr %16, i64 %19
  %21 = load ptr, ptr %10, align 8, !tbaa !3
  call void @llvm.memcpy.p0.p0.i64(ptr align 1 %20, ptr align 1 %21, i64 3, i1 false)
  ret void
}